; Function Attrs: mustprogress uwtable
define void @_ZN5arrow3ipc13MessageReader4OpenERKSt10shared_ptrINS_2io11InputStreamEE(ptr dead_on_unwind noalias writable writeonly sret(%"class.std::unique_ptr.84") align 8 captures(none) initializes((0, 8)) %0, ptr noundef nonnull align 8 dereferenceable(16) %1) local_unnamed_addr #0 align 2 personality ptr @__gxx_personality_v0 {
_ZNSt10unique_ptrIN5arrow3ipc24InputStreamMessageReaderESt14default_deleteIS2_EED2Ev.exit:
  %2 = alloca %"class.std::unique_ptr.92", align 8
  call void @llvm.lifetime.start.p0(i64 8, ptr nonnull %2) #29
  call void @_ZSt11make_uniqueIN5arrow3ipc24InputStreamMessageReaderEJRKSt10shared_ptrINS0_2io11InputStreamEEEENSt8__detail9_MakeUniqIT_E15__single_objectEDpOT0_(ptr dead_on_unwind nonnull writable sret(%"class.std::unique_ptr.92") align 8 %2, ptr noundef nonnull align 8 dereferenceable(16) %1)
  %3 = load ptr, ptr %2, align 8, !tbaa !695
  store ptr %3, ptr %0, align 8, !tbaa !692
  call void @llvm.lifetime.end.p0(i64 8, ptr nonnull %2) #29
  ret void
}